; Function Attrs: nounwind uwtable
define internal ptr @proxy_invert(ptr noundef %0) #0 {
  %2 = getelementptr i8, ptr %0, i64 8
  %.val11 = load ptr, ptr %2, align 8, !tbaa !4
  %.not = icmp eq ptr %.val11, @_PyWeakref_ProxyType
  %.not17 = icmp eq ptr %.val11, @_PyWeakref_CallableProxyType
  %or.cond = or i1 %.not, %.not17
  br i1 %or.cond, label %3, label %10

3:                                                ; preds = %1
  %4 = getelementptr i8, ptr %0, i64 16
  %.val12 = load ptr, ptr %4, align 8, !tbaa !37
  %5 = icmp eq ptr %.val12, @_Py_NoneStruct
  br i1 %5, label %proxy_check_ref.exit, label %6

6:                                                ; preds = %3
  %.val.i.i = load i32, ptr %.val12, align 8, !tbaa !42
  %.not.i.i = icmp eq i32 %.val.i.i, 0
  br i1 %.not.i.i, label %proxy_check_ref.exit, label %7

7:                                                ; preds = %6
  %8 = icmp slt i32 %.val.i.i, 0
  br i1 %8, label %Py_INCREF.exit, label %Py_INCREF.exit.sink.split

proxy_check_ref.exit:                             ; preds = %6, %3
  %9 = load ptr, ptr @PyExc_ReferenceError, align 8, !tbaa !45
  tail call void @PyErr_SetString(ptr noundef %9, ptr noundef nonnull @.str.21) #6
  br label %Py_DECREF.exit

10:                                               ; preds = %1
  %11 = load i32, ptr %0, align 8, !tbaa !42
  %12 = icmp slt i32 %11, 0
  br i1 %12, label %Py_INCREF.exit, label %Py_INCREF.exit.sink.split

Py_INCREF.exit.sink.split:                        ; preds = %10, %7
  %.val.i.i.sink = phi i32 [ %.val.i.i, %7 ], [ %11, %10 ]
  %.val12.sink = phi ptr [ %.val12, %7 ], [ %0, %10 ]
  %13 = add nuw i32 %.val.i.i.sink, 1
  store i32 %13, ptr %.val12.sink, align 8, !tbaa !42
  br label %Py_INCREF.exit

Py_INCREF.exit:                                   ; preds = %Py_INCREF.exit.sink.split, %7, %10
  %.09 = phi ptr [ %0, %10 ], [ %.val12, %7 ], [ %.val12.sink, %Py_INCREF.exit.sink.split ]
  %14 = tail call ptr @PyNumber_Invert(ptr noundef nonnull %.09) #6
  %15 = load i32, ptr %.09, align 8, !tbaa !42
  %.not.i = icmp sgt i32 %15, -1
  br i1 %.not.i, label %16, label %Py_DECREF.exit

16:                                               ; preds = %Py_INCREF.exit
  %17 = add nsw i32 %15, -1
  store i32 %17, ptr %.09, align 8, !tbaa !42
  %18 = icmp eq i32 %17, 0
  br i1 %18, label %19, label %Py_DECREF.exit

19:                                               ; preds = %16
  tail call void @_Py_Dealloc(ptr noundef nonnull %.09) #6
  br label %Py_DECREF.exit

Py_DECREF.exit:                                   ; preds = %19, %16, %Py_INCREF.exit, %proxy_check_ref.exit
  %.0 = phi ptr [ null, %proxy_check_ref.exit ], [ %14, %Py_INCREF.exit ], [ %14, %16 ], [ %14, %19 ]
  ret ptr %.0
}